; Function Attrs: mustprogress nofree norecurse nosync nounwind willreturn memory(argmem: write) uwtable
define void @jsonnet_fmt_string(ptr nocapture noundef writeonly %0, i32 noundef %1) local_unnamed_addr #15 {
  %3 = icmp ne i32 %1, 115
  %4 = and i32 %1, -9
  %5 = icmp ne i32 %4, 100
  %or.cond3 = and i1 %3, %5
  %6 = trunc i32 %1 to i8
  %7 = select i1 %or.cond3, i8 108, i8 %6
  %8 = getelementptr inbounds i8, ptr %0, i64 216
  store i8 %7, ptr %8, align 8
  ret void
}